; Function Attrs: nounwind uwtable
define i32 @Gia_ManGraphToAig(ptr noundef %0, ptr noundef readonly captures(none) %1) local_unnamed_addr #0 {
  %.val = load i32, ptr %1, align 8, !tbaa !3
  %.not = icmp eq i32 %.val, 0
  br i1 %.not, label %7, label %3

3:                                                ; preds = %2
  %4 = getelementptr i8, ptr %1, i64 24
  %.val26 = load i32, ptr %4, align 8
  %5 = and i32 %.val26, 1
  %6 = xor i32 %5, 1
  br label %50

7:                                                ; preds = %2
  %8 = getelementptr i8, ptr %1, i64 4
  %.val29 = load i32, ptr %8, align 4, !tbaa !11
  %9 = getelementptr i8, ptr %1, i64 24
  %.val30 = load i32, ptr %9, align 8
  %10 = lshr i32 %.val30, 1
  %11 = and i32 %10, 1073741823
  %.not36 = icmp ult i32 %11, %.val29
  br i1 %.not36, label %17, label %.preheader

.preheader:                                       ; preds = %7
  %12 = getelementptr inbounds nuw i8, ptr %1, i64 8
  %13 = load i32, ptr %12, align 8, !tbaa !12
  %14 = icmp slt i32 %.val29, %13
  tail call void @llvm.assume(i1 %14)
  %15 = getelementptr i8, ptr %1, i64 16
  %16 = zext nneg i32 %.val29 to i64
  br label %24

17:                                               ; preds = %7
  %18 = getelementptr i8, ptr %1, i64 16
  %.val34 = load ptr, ptr %18, align 8, !tbaa !13
  %19 = zext nneg i32 %11 to i64
  %20 = getelementptr inbounds nuw %struct.Dec_Node_t_, ptr %.val34, i64 %19, i32 2
  %21 = load i32, ptr %20, align 8, !tbaa !14
  %22 = and i32 %.val30, 1
  %23 = xor i32 %21, %22
  br label %50

24:                                               ; preds = %.preheader, %24
  %indvars.iv = phi i64 [ %16, %.preheader ], [ %indvars.iv.next, %24 ]
  %.val31 = load ptr, ptr %15, align 8, !tbaa !13
  %25 = getelementptr inbounds nuw %struct.Dec_Node_t_, ptr %.val31, i64 %indvars.iv
  %26 = load i32, ptr %25, align 8
  %27 = lshr i32 %26, 1
  %28 = and i32 %27, 1073741823
  %29 = zext nneg i32 %28 to i64
  %30 = getelementptr inbounds nuw %struct.Dec_Node_t_, ptr %.val31, i64 %29, i32 2
  %31 = load i32, ptr %30, align 8, !tbaa !14
  %32 = and i32 %26, 1
  %33 = xor i32 %31, %32
  %34 = getelementptr inbounds nuw i8, ptr %25, i64 4
  %35 = load i32, ptr %34, align 4
  %36 = lshr i32 %35, 1
  %37 = and i32 %36, 1073741823
  %38 = zext nneg i32 %37 to i64
  %39 = getelementptr inbounds nuw %struct.Dec_Node_t_, ptr %.val31, i64 %38, i32 2
  %40 = load i32, ptr %39, align 8, !tbaa !14
  %41 = and i32 %35, 1
  %42 = xor i32 %40, %41
  %43 = tail call i32 @Gia_ManHashAnd(ptr noundef %0, i32 noundef %33, i32 noundef %42) #18
  %44 = getelementptr inbounds nuw i8, ptr %25, i64 8
  store i32 %43, ptr %44, align 8, !tbaa !14
  %indvars.iv.next = add nuw nsw i64 %indvars.iv, 1
  %45 = load i32, ptr %12, align 8, !tbaa !12
  %46 = sext i32 %45 to i64
  %47 = icmp slt i64 %indvars.iv.next, %46
  br i1 %47, label %24, label %.critedge, !llvm.loop !15

.critedge:                                        ; preds = %24
  %.val28 = load i32, ptr %9, align 8
  %48 = and i32 %.val28, 1
  %49 = xor i32 %48, %43
  br label %50

50:                                               ; preds = %.critedge, %17, %3
  %.0 = phi i32 [ %6, %3 ], [ %23, %17 ], [ %49, %.critedge ]
  ret i32 %.0
}